target datalayout = "e-m:e-p270:32:32-p271:32:32-p272:64:64-i64:64-i128:128-f80:128-n8:16:32:64-S128"
target triple = "x86_64-pc-linux-gnu"

%struct.WC_PKCS12 = type { ptr, ptr, ptr, i32, i8 }

; Function Attrs: nounwind uwtable
define ptr @wc_PKCS12_GetHeap(ptr noundef %0) #0 {
  %2 = alloca ptr, align 8
  %3 = alloca ptr, align 8
  store ptr %0, ptr %3, align 8, !tbaa !7
  %4 = load ptr, ptr %3, align 8, !tbaa !7
  %5 = icmp eq ptr %4, null
  br i1 %5, label %6, label %7

6:                                                ; preds = %1
  store ptr null, ptr %2, align 8
  br label %11

7:                                                ; preds = %1
  %8 = load ptr, ptr %3, align 8, !tbaa !7
  %9 = getelementptr inbounds nuw %struct.WC_PKCS12, ptr %8, i32 0, i32 0
  %10 = load ptr, ptr %9, align 8, !tbaa !9
  store ptr %10, ptr %2, align 8
  br label %11

11:                                               ; preds = %7, %6
  %12 = load ptr, ptr %2, align 8
  ret ptr %12
}

; Function Attrs: nounwind uwtable
define internal i32 @wc_PKCS12_shroud_key(ptr noundef %0, ptr noundef %1, ptr noundef %2, ptr noundef %3, ptr noundef %4, i32 noundef %5, i32 noundef %6, ptr noundef %7, i32 noundef %8, i32 noundef %9) #0 {
  %11 = alloca i32, align 4
  %12 = alloca ptr, align 8
  %13 = alloca ptr, align 8
  %14 = alloca ptr, align 8
  %15 = alloca ptr, align 8
  %16 = alloca ptr, align 8
  %17 = alloca i32, align 4
  %18 = alloca i32, align 4
  %19 = alloca ptr, align 8
  %20 = alloca i32, align 4
  %21 = alloca i32, align 4
  %22 = alloca ptr, align 8
  %23 = alloca i32, align 4
  %24 = alloca i32, align 4
  %25 = alloca i32, align 4
  %26 = alloca i32, align 4
  %27 = alloca i32, align 4
  %28 = alloca ptr, align 8
  %29 = alloca i32, align 4
  %30 = alloca ptr, align 8
  %31 = alloca i32, align 4
  %32 = alloca i32, align 4
  store ptr %0, ptr %12, align 8, !tbaa !7
  store ptr %1, ptr %13, align 8, !tbaa !66
  store ptr %2, ptr %14, align 8, !tbaa !32
  store ptr %3, ptr %15, align 8, !tbaa !37
  store ptr %4, ptr %16, align 8, !tbaa !32
  store i32 %5, ptr %17, align 4, !tbaa !24
  store i32 %6, ptr %18, align 4, !tbaa !24
  store ptr %7, ptr %19, align 8, !tbaa !32
  store i32 %8, ptr %20, align 4, !tbaa !24
  store i32 %9, ptr %21, align 4, !tbaa !24
  call void @llvm.lifetime.start.p0(i64 8, ptr %22) #7
  call void @llvm.lifetime.start.p0(i64 4, ptr %23) #7
  store i32 0, ptr %23, align 4, !tbaa !24
  call void @llvm.lifetime.start.p0(i64 4, ptr %24) #7
  store i32 1, ptr %24, align 4, !tbaa !24
  call void @llvm.lifetime.start.p0(i64 4, ptr %25) #7
  call void @llvm.lifetime.start.p0(i64 4, ptr %26) #7
  store i32 0, ptr %26, align 4, !tbaa !24
  call void @llvm.lifetime.start.p0(i64 4, ptr %27) #7
  call void @llvm.lifetime.start.p0(i64 8, ptr %28) #7
  store ptr null, ptr %28, align 8, !tbaa !32
  %33 = load ptr, ptr %15, align 8, !tbaa !37
  %34 = icmp eq ptr %33, null
  br i1 %34, label %47, label %35

35:                                               ; preds = %10
  %36 = load ptr, ptr %12, align 8, !tbaa !7
  %37 = icmp eq ptr %36, null
  br i1 %37, label %47, label %38

38:                                               ; preds = %35
  %39 = load ptr, ptr %13, align 8, !tbaa !66
  %40 = icmp eq ptr %39, null
  br i1 %40, label %47, label %41

41:                                               ; preds = %38
  %42 = load ptr, ptr %16, align 8, !tbaa !32
  %43 = icmp eq ptr %42, null
  br i1 %43, label %47, label %44

44:                                               ; preds = %41
  %45 = load ptr, ptr %19, align 8, !tbaa !32
  %46 = icmp eq ptr %45, null
  br i1 %46, label %47, label %48

47:                                               ; preds = %44, %41, %38, %35, %10
  store i32 -173, ptr %11, align 4
  store i32 1, ptr %29, align 4
  br label %153

48:                                               ; preds = %44
  %49 = load ptr, ptr %12, align 8, !tbaa !7
  %50 = call ptr @wc_PKCS12_GetHeap(ptr noundef %49)
  store ptr %50, ptr %22, align 8, !tbaa !3
  %51 = load ptr, ptr %14, align 8, !tbaa !32
  %52 = icmp ne ptr %51, null
  br i1 %52, label %53, label %64

53:                                               ; preds = %48
  %54 = load i32, ptr %23, align 4, !tbaa !24
  %55 = add i32 %54, 6
  store i32 %55, ptr %23, align 4, !tbaa !24
  %56 = load ptr, ptr %15, align 8, !tbaa !37
  %57 = load i32, ptr %56, align 4, !tbaa !24
  %58 = load i32, ptr %23, align 4, !tbaa !24
  %59 = sub i32 %57, %58
  store i32 %59, ptr %25, align 4, !tbaa !24
  %60 = load ptr, ptr %14, align 8, !tbaa !32
  %61 = load i32, ptr %23, align 4, !tbaa !24
  %62 = zext i32 %61 to i64
  %63 = getelementptr inbounds nuw i8, ptr %60, i64 %62
  store ptr %63, ptr %28, align 8, !tbaa !32
  br label %64

64:                                               ; preds = %53, %48
  %65 = load i32, ptr %18, align 4, !tbaa !24
  %66 = icmp slt i32 %65, 0
  br i1 %66, label %67, label %89

67:                                               ; preds = %64
  call void @llvm.lifetime.start.p0(i64 8, ptr %30) #7
  store ptr null, ptr %30, align 8, !tbaa !32
  call void @llvm.lifetime.start.p0(i64 4, ptr %31) #7
  store i32 0, ptr %31, align 4, !tbaa !24
  call void @llvm.lifetime.start.p0(i64 4, ptr %32) #7
  br label %68

68:                                               ; preds = %67
  br label %69

69:                                               ; preds = %68
  br label %70

70:                                               ; preds = %69
  %71 = load ptr, ptr %16, align 8, !tbaa !32
  %72 = load i32, ptr %17, align 4, !tbaa !24
  %73 = load ptr, ptr %22, align 8, !tbaa !3
  %74 = call i32 @wc_GetKeyOID(ptr noundef %71, i32 noundef %72, ptr noundef %30, ptr noundef %31, ptr noundef %32, ptr noundef %73)
  store i32 %74, ptr %27, align 4, !tbaa !24
  %75 = icmp slt i32 %74, 0
  br i1 %75, label %76, label %78

76:                                               ; preds = %70
  %77 = load i32, ptr %27, align 4, !tbaa !24
  store i32 %77, ptr %11, align 4
  store i32 1, ptr %29, align 4
  br label %86

78:                                               ; preds = %70
  %79 = load ptr, ptr %28, align 8, !tbaa !32
  %80 = load ptr, ptr %16, align 8, !tbaa !32
  %81 = load i32, ptr %17, align 4, !tbaa !24
  %82 = load i32, ptr %32, align 4, !tbaa !24
  %83 = load ptr, ptr %30, align 8, !tbaa !32
  %84 = load i32, ptr %31, align 4, !tbaa !24
  %85 = call i32 @wc_CreatePKCS8Key(ptr noundef %79, ptr noundef %25, ptr noundef %80, i32 noundef %81, i32 noundef %82, ptr noundef %83, i32 noundef %84)
  store i32 %85, ptr %27, align 4, !tbaa !24
  store i32 0, ptr %29, align 4
  br label %86

86:                                               ; preds = %78, %76
  call void @llvm.lifetime.end.p0(i64 4, ptr %32) #7
  call void @llvm.lifetime.end.p0(i64 4, ptr %31) #7
  call void @llvm.lifetime.end.p0(i64 8, ptr %30) #7
  %87 = load i32, ptr %29, align 4
  switch i32 %87, label %153 [
    i32 0, label %88
  ]

88:                                               ; preds = %86
  br label %108

89:                                               ; preds = %64
  br label %90

90:                                               ; preds = %89
  br label %91

91:                                               ; preds = %90
  br label %92

92:                                               ; preds = %91
  %93 = load i32, ptr %18, align 4, !tbaa !24
  %94 = icmp eq i32 %93, 2
  br i1 %94, label %95, label %96

95:                                               ; preds = %92
  store i32 5, ptr %24, align 4, !tbaa !24
  store i32 10, ptr %18, align 4, !tbaa !24
  br label %96

96:                                               ; preds = %95, %92
  %97 = load ptr, ptr %16, align 8, !tbaa !32
  %98 = load i32, ptr %17, align 4, !tbaa !24
  %99 = load ptr, ptr %28, align 8, !tbaa !32
  %100 = load ptr, ptr %19, align 8, !tbaa !32
  %101 = load i32, ptr %20, align 4, !tbaa !24
  %102 = load i32, ptr %24, align 4, !tbaa !24
  %103 = load i32, ptr %18, align 4, !tbaa !24
  %104 = load i32, ptr %21, align 4, !tbaa !24
  %105 = load ptr, ptr %13, align 8, !tbaa !66
  %106 = load ptr, ptr %22, align 8, !tbaa !3
  %107 = call i32 @UnTraditionalEnc(ptr noundef %97, i32 noundef %98, ptr noundef %99, ptr noundef %25, ptr noundef %100, i32 noundef %101, i32 noundef %102, i32 noundef %103, ptr noundef null, i32 noundef 0, i32 noundef %104, ptr noundef %105, ptr noundef %106)
  store i32 %107, ptr %27, align 4, !tbaa !24
  br label %108

108:                                              ; preds = %96, %88
  %109 = load i32, ptr %27, align 4, !tbaa !24
  %110 = icmp eq i32 %109, -202
  br i1 %110, label %111, label %116

111:                                              ; preds = %108
  %112 = load i32, ptr %25, align 4, !tbaa !24
  %113 = add i32 %112, 5
  %114 = add i32 %113, 1
  %115 = load ptr, ptr %15, align 8, !tbaa !37
  store i32 %114, ptr %115, align 4, !tbaa !24
  store i32 -202, ptr %11, align 4
  store i32 1, ptr %29, align 4
  br label %153

116:                                              ; preds = %108
  %117 = load i32, ptr %27, align 4, !tbaa !24
  %118 = icmp slt i32 %117, 0
  br i1 %118, label %119, label %121

119:                                              ; preds = %116
  %120 = load i32, ptr %27, align 4, !tbaa !24
  store i32 %120, ptr %11, align 4
  store i32 1, ptr %29, align 4
  br label %153

121:                                              ; preds = %116
  %122 = load i32, ptr %27, align 4, !tbaa !24
  %123 = load i32, ptr %26, align 4, !tbaa !24
  %124 = add i32 %123, %122
  store i32 %124, ptr %26, align 4, !tbaa !24
  %125 = load ptr, ptr %14, align 8, !tbaa !32
  %126 = icmp eq ptr %125, null
  br i1 %126, label %127, label %128

127:                                              ; preds = %121
  store i32 -173, ptr %11, align 4
  store i32 1, ptr %29, align 4
  br label %153

128:                                              ; preds = %121
  %129 = load i32, ptr %23, align 4, !tbaa !24
  %130 = sub i32 %129, 6
  store i32 %130, ptr %23, align 4, !tbaa !24
  %131 = load i32, ptr %27, align 4, !tbaa !24
  %132 = load ptr, ptr %14, align 8, !tbaa !32
  %133 = load i32, ptr %23, align 4, !tbaa !24
  %134 = zext i32 %133 to i64
  %135 = getelementptr inbounds nuw i8, ptr %132, i64 %134
  %136 = call i32 @SetExplicit(i8 noundef zeroext 0, i32 noundef %131, ptr noundef %135, i8 noundef zeroext 0)
  store i32 %136, ptr %25, align 4, !tbaa !24
  %137 = load i32, ptr %25, align 4, !tbaa !24
  %138 = load i32, ptr %23, align 4, !tbaa !24
  %139 = add i32 %138, %137
  store i32 %139, ptr %23, align 4, !tbaa !24
  %140 = load i32, ptr %25, align 4, !tbaa !24
  %141 = load i32, ptr %26, align 4, !tbaa !24
  %142 = add i32 %141, %140
  store i32 %142, ptr %26, align 4, !tbaa !24
  %143 = load ptr, ptr %14, align 8, !tbaa !32
  %144 = load i32, ptr %23, align 4, !tbaa !24
  %145 = zext i32 %144 to i64
  %146 = getelementptr inbounds nuw i8, ptr %143, i64 %145
  %147 = load ptr, ptr %14, align 8, !tbaa !32
  %148 = getelementptr inbounds i8, ptr %147, i64 5
  %149 = getelementptr inbounds i8, ptr %148, i64 1
  %150 = load i32, ptr %27, align 4, !tbaa !24
  %151 = sext i32 %150 to i64
  call void @llvm.memmove.p0.p0.i64(ptr align 1 %146, ptr align 1 %149, i64 %151, i1 false)
  %152 = load i32, ptr %26, align 4, !tbaa !24
  store i32 %152, ptr %11, align 4
  store i32 1, ptr %29, align 4
  br label %153

153:                                              ; preds = %128, %127, %119, %111, %86, %47
  call void @llvm.lifetime.end.p0(i64 8, ptr %28) #7
  call void @llvm.lifetime.end.p0(i64 4, ptr %27) #7
  call void @llvm.lifetime.end.p0(i64 4, ptr %26) #7
  call void @llvm.lifetime.end.p0(i64 4, ptr %25) #7
  call void @llvm.lifetime.end.p0(i64 4, ptr %24) #7
  call void @llvm.lifetime.end.p0(i64 4, ptr %23) #7
  call void @llvm.lifetime.end.p0(i64 8, ptr %22) #7
  %154 = load i32, ptr %11, align 4
  ret i32 %154
}