; Function Attrs: nounwind uwtable
define internal fastcc i32 @wc_PKCS12_shroud_key(ptr noundef nonnull readonly captures(none) %0, ptr noundef nonnull %1, ptr noundef %2, ptr noundef nonnull captures(none) %3, ptr noundef %4, i32 noundef %5, i32 noundef range(i32 -1, 4) %6, ptr noundef %7, i32 noundef %8, i32 noundef %9) unnamed_addr #0 {
  %11 = alloca i32, align 4
  %12 = alloca ptr, align 8
  %13 = alloca i32, align 4
  %14 = alloca i32, align 4
  call void @llvm.lifetime.start.p0(i64 4, ptr nonnull %11) #9
  %15 = icmp eq ptr %4, null
  %16 = icmp eq ptr %7, null
  %or.cond7 = or i1 %15, %16
  br i1 %or.cond7, label %53, label %17

17:                                               ; preds = %10
  %18 = load ptr, ptr %0, align 8, !tbaa !3
  %.not = icmp eq ptr %2, null
  br i1 %.not, label %23, label %19

19:                                               ; preds = %17
  %20 = load i32, ptr %3, align 4, !tbaa !28
  %21 = add i32 %20, -6
  store i32 %21, ptr %11, align 4, !tbaa !28
  %22 = getelementptr inbounds nuw i8, ptr %2, i64 6
  br label %23

23:                                               ; preds = %19, %17
  %.060 = phi i32 [ 0, %19 ], [ -6, %17 ]
  %.057 = phi ptr [ %22, %19 ], [ null, %17 ]
  %24 = icmp slt i32 %6, 0
  br i1 %24, label %25, label %33

25:                                               ; preds = %23
  call void @llvm.lifetime.start.p0(i64 8, ptr nonnull %12) #9
  store ptr null, ptr %12, align 8, !tbaa !39
  call void @llvm.lifetime.start.p0(i64 4, ptr nonnull %13) #9
  store i32 0, ptr %13, align 4, !tbaa !28
  call void @llvm.lifetime.start.p0(i64 4, ptr nonnull %14) #9
  %26 = call i32 @wc_GetKeyOID(ptr noundef nonnull %4, i32 noundef %5, ptr noundef nonnull %12, ptr noundef nonnull %13, ptr noundef nonnull %14, ptr noundef %18) #9
  %27 = icmp sgt i32 %26, -1
  br i1 %27, label %.thread, label %32

.thread:                                          ; preds = %25
  %28 = load i32, ptr %14, align 4, !tbaa !28
  %29 = load ptr, ptr %12, align 8, !tbaa !39
  %30 = load i32, ptr %13, align 4, !tbaa !28
  %31 = call i32 @wc_CreatePKCS8Key(ptr noundef %.057, ptr noundef nonnull %11, ptr noundef nonnull %4, i32 noundef %5, i32 noundef %28, ptr noundef %29, i32 noundef %30) #9
  call void @llvm.lifetime.end.p0(i64 4, ptr nonnull %14) #9
  call void @llvm.lifetime.end.p0(i64 4, ptr nonnull %13) #9
  call void @llvm.lifetime.end.p0(i64 8, ptr nonnull %12) #9
  br label %36

32:                                               ; preds = %25
  call void @llvm.lifetime.end.p0(i64 4, ptr nonnull %14) #9
  call void @llvm.lifetime.end.p0(i64 4, ptr nonnull %13) #9
  call void @llvm.lifetime.end.p0(i64 8, ptr nonnull %12) #9
  br label %53

33:                                               ; preds = %23
  %34 = icmp eq i32 %6, 2
  %spec.select = select i1 %34, i32 10, i32 %6
  %spec.select72 = select i1 %34, i32 5, i32 1
  %35 = call i32 @UnTraditionalEnc(ptr noundef nonnull %4, i32 noundef %5, ptr noundef %.057, ptr noundef nonnull %11, ptr noundef nonnull %7, i32 noundef %8, i32 noundef %spec.select72, i32 noundef %spec.select, ptr noundef null, i32 noundef 0, i32 noundef %9, ptr noundef nonnull %1, ptr noundef %18) #9
  br label %36

36:                                               ; preds = %.thread, %33
  %.1 = phi i32 [ %35, %33 ], [ %31, %.thread ]
  %37 = icmp eq i32 %.1, -202
  br i1 %37, label %38, label %41

38:                                               ; preds = %36
  %39 = load i32, ptr %11, align 4, !tbaa !28
  %40 = add i32 %39, 6
  store i32 %40, ptr %3, align 4, !tbaa !28
  br label %53

41:                                               ; preds = %36
  %42 = icmp slt i32 %.1, 0
  %brmerge = or i1 %.not, %42
  %.1.mux = select i1 %42, i32 %.1, i32 -173
  br i1 %brmerge, label %53, label %43

43:                                               ; preds = %41
  %44 = zext i32 %.060 to i64
  %45 = getelementptr inbounds nuw i8, ptr %2, i64 %44
  %46 = call i32 @SetExplicit(i8 noundef zeroext 0, i32 noundef %.1, ptr noundef nonnull %45, i8 noundef zeroext 0) #9
  %47 = add i32 %46, %.060
  %48 = add i32 %46, %.1
  %49 = zext i32 %47 to i64
  %50 = getelementptr inbounds nuw i8, ptr %2, i64 %49
  %51 = getelementptr inbounds nuw i8, ptr %2, i64 6
  %52 = zext nneg i32 %.1 to i64
  call void @llvm.memmove.p0.p0.i64(ptr nonnull align 1 %50, ptr nonnull align 1 %51, i64 %52, i1 false)
  br label %53

53:                                               ; preds = %41, %32, %10, %43, %38
  %.061 = phi i32 [ -202, %38 ], [ %48, %43 ], [ %26, %32 ], [ -173, %10 ], [ %.1.mux, %41 ]
  call void @llvm.lifetime.end.p0(i64 4, ptr nonnull %11) #9
  ret i32 %.061
}